target datalayout = "e-m:e-p270:32:32-p271:32:32-p272:64:64-i64:64-i128:128-f80:128-n8:16:32:64-S128"
target triple = "x86_64-pc-linux-gnu"

%struct.MvcCoverStruct = type { i32, i32, i32, %struct.MvcListStruct, ptr, i32, ptr, ptr, ptr }
%struct.MvcListStruct = type { ptr, ptr, i32 }
%struct.MvcCubeStruct = type { ptr, i32, i32, [1 x i32] }

; Function Attrs: nounwind uwtable
define ptr @Mvc_CoverReadCubeHead(ptr noundef %0) #0 {
  %2 = alloca ptr, align 8
  store ptr %0, ptr %2, align 8, !tbaa !3
  %3 = load ptr, ptr %2, align 8, !tbaa !3
  %4 = getelementptr inbounds nuw %struct.MvcCoverStruct, ptr %3, i32 0, i32 3
  %5 = getelementptr inbounds nuw %struct.MvcListStruct, ptr %4, i32 0, i32 0
  %6 = load ptr, ptr %5, align 8, !tbaa !18
  ret ptr %6
}

; Function Attrs: nounwind uwtable
define i32 @Mvc_CoverReadCubeNum(ptr noundef %0) #0 {
  %2 = alloca ptr, align 8
  store ptr %0, ptr %2, align 8, !tbaa !3
  %3 = load ptr, ptr %2, align 8, !tbaa !3
  %4 = getelementptr inbounds nuw %struct.MvcCoverStruct, ptr %3, i32 0, i32 3
  %5 = getelementptr inbounds nuw %struct.MvcListStruct, ptr %4, i32 0, i32 2
  %6 = load i32, ptr %5, align 8, !tbaa !17
  ret i32 %6
}

; Function Attrs: nounwind uwtable
define i32 @Mvc_CoverIsTautology(ptr noundef %0) #0 {
  %2 = alloca i32, align 4
  %3 = alloca ptr, align 8
  %4 = alloca ptr, align 8
  %5 = alloca i32, align 4
  %6 = alloca i32, align 4
  %7 = alloca i32, align 4
  store ptr %0, ptr %3, align 8, !tbaa !3
  call void @llvm.lifetime.start.p0(i64 8, ptr %4) #4
  call void @llvm.lifetime.start.p0(i64 4, ptr %5) #4
  call void @llvm.lifetime.start.p0(i64 4, ptr %6) #4
  %8 = load ptr, ptr %3, align 8, !tbaa !3
  %9 = call i32 @Mvc_CoverReadCubeNum(ptr noundef %8)
  %10 = icmp ne i32 %9, 1
  br i1 %10, label %11, label %12

11:                                               ; preds = %1
  store i32 0, ptr %2, align 4
  store i32 1, ptr %7, align 4
  br label %46

12:                                               ; preds = %1
  %13 = load ptr, ptr %3, align 8, !tbaa !3
  %14 = call ptr @Mvc_CoverReadCubeHead(ptr noundef %13)
  store ptr %14, ptr %4, align 8, !tbaa !26
  store i32 0, ptr %5, align 4, !tbaa !25
  br label %15

15:                                               ; preds = %42, %12
  %16 = load i32, ptr %5, align 4, !tbaa !25
  %17 = load ptr, ptr %3, align 8, !tbaa !3
  %18 = getelementptr inbounds nuw %struct.MvcCoverStruct, ptr %17, i32 0, i32 2
  %19 = load i32, ptr %18, align 8, !tbaa !16
  %20 = icmp slt i32 %16, %19
  br i1 %20, label %21, label %35

21:                                               ; preds = %15
  %22 = load ptr, ptr %4, align 8, !tbaa !26
  %23 = getelementptr inbounds nuw %struct.MvcCubeStruct, ptr %22, i32 0, i32 3
  %24 = load i32, ptr %5, align 4, !tbaa !25
  %25 = ashr i32 %24, 5
  %26 = sext i32 %25 to i64
  %27 = getelementptr inbounds [1 x i32], ptr %23, i64 0, i64 %26
  %28 = load i32, ptr %27, align 4, !tbaa !25
  %29 = load i32, ptr %5, align 4, !tbaa !25
  %30 = and i32 %29, 31
  %31 = shl i32 1, %30
  %32 = and i32 %28, %31
  %33 = icmp ugt i32 %32, 0
  %34 = zext i1 %33 to i32
  store i32 %34, ptr %6, align 4, !tbaa !25
  br label %35

35:                                               ; preds = %21, %15
  %36 = phi i1 [ false, %15 ], [ true, %21 ]
  br i1 %36, label %37, label %45

37:                                               ; preds = %35
  %38 = load i32, ptr %6, align 4, !tbaa !25
  %39 = icmp eq i32 %38, 0
  br i1 %39, label %40, label %41

40:                                               ; preds = %37
  store i32 0, ptr %2, align 4
  store i32 1, ptr %7, align 4
  br label %46

41:                                               ; preds = %37
  br label %42

42:                                               ; preds = %41
  %43 = load i32, ptr %5, align 4, !tbaa !25
  %44 = add nsw i32 %43, 1
  store i32 %44, ptr %5, align 4, !tbaa !25
  br label %15, !llvm.loop !28

45:                                               ; preds = %35
  store i32 1, ptr %2, align 4
  store i32 1, ptr %7, align 4
  br label %46

46:                                               ; preds = %45, %40, %11
  call void @llvm.lifetime.end.p0(i64 4, ptr %6) #4
  call void @llvm.lifetime.end.p0(i64 4, ptr %5) #4
  call void @llvm.lifetime.end.p0(i64 8, ptr %4) #4
  %47 = load i32, ptr %2, align 4
  ret i32 %47
}