; Function Attrs: nofree norecurse nosync nounwind memory(read, inaccessiblemem: none) uwtable
define range(i32 0, 2) i32 @Mvc_CoverIsTautology(ptr noundef readonly captures(none) %0) local_unnamed_addr #5 {
  %2 = getelementptr inbounds nuw i8, ptr %0, i64 32
  %3 = load i32, ptr %2, align 8, !tbaa !15
  %.not = icmp eq i32 %3, 1
  br i1 %.not, label %4, label %.critedge

4:                                                ; preds = %1
  %5 = getelementptr inbounds nuw i8, ptr %0, i64 16
  %6 = load ptr, ptr %5, align 8, !tbaa !16
  %7 = getelementptr inbounds nuw i8, ptr %6, i64 16
  %8 = getelementptr inbounds nuw i8, ptr %0, i64 8
  %9 = load i32, ptr %8, align 8, !tbaa !14
  %10 = icmp sgt i32 %9, 0
  br i1 %10, label %.lr.ph, label %.critedge

11:                                               ; preds = %.lr.ph
  %12 = add nuw nsw i32 %.0910, 1
  %exitcond.not = icmp eq i32 %12, %9
  br i1 %exitcond.not, label %.critedge, label %.lr.ph, !llvm.loop !24

.lr.ph:                                           ; preds = %4, %11
  %.0910 = phi i32 [ %12, %11 ], [ 0, %4 ]
  %13 = lshr i32 %.0910, 5
  %14 = zext nneg i32 %13 to i64
  %15 = getelementptr inbounds nuw [1 x i32], ptr %7, i64 0, i64 %14
  %16 = load i32, ptr %15, align 4, !tbaa !23
  %17 = and i32 %.0910, 31
  %18 = shl nuw i32 1, %17
  %19 = and i32 %16, %18
  %20 = icmp eq i32 %19, 0
  br i1 %20, label %.critedge, label %11

.critedge:                                        ; preds = %.lr.ph, %11, %4, %1
  %.0 = phi i32 [ 0, %1 ], [ 1, %4 ], [ 0, %.lr.ph ], [ 1, %11 ]
  ret i32 %.0
}